target datalayout = "e-m:e-p270:32:32-p271:32:32-p272:64:64-i64:64-i128:128-f80:128-n8:16:32:64-S128"
target triple = "x86_64-pc-linux-gnu"

%struct.pmix_mca_base_framework_t = type { ptr, ptr, ptr, ptr, ptr, ptr, i32, i32, ptr, ptr, i32, i32, %struct.pmix_list_t, %struct.pmix_list_t }
%struct.pmix_list_t = type { %struct.pmix_object_t, %struct.pmix_list_item_t, i64 }
%struct.pmix_object_t = type { %union.pthread_mutex_t, ptr, i32, %struct.pmix_tma }
%union.pthread_mutex_t = type { %struct.__pthread_mutex_s }
%struct.__pthread_mutex_s = type { i32, i32, i32, i32, i32, i16, i16, %struct.__pthread_internal_list }
%struct.__pthread_internal_list = type { ptr, ptr }
%struct.pmix_tma = type { ptr, ptr, ptr, ptr, ptr, ptr, ptr, ptr }
%struct.pmix_list_item_t = type { %struct.pmix_object_t, ptr, ptr, i32 }
%struct.pmix_class_t = type { ptr, ptr, ptr, ptr, i32, i32, ptr, ptr, i64 }
%struct.pmix_output_desc_t = type { i8, i8, i32, i8, i32, ptr, ptr, i32, ptr, i32, i8, i8, i8, i8, ptr, i32, i32 }
%struct.prte_process_info_t = type { %struct.pmix_proc, %struct.pmix_proc, ptr, %struct.pmix_proc, i32, i32, i32, ptr, ptr, i32, i8, ptr, i16, ptr, ptr, i8, ptr, i8 }
%struct.pmix_proc = type { [256 x i8], i32 }
%struct.prte_iof_write_event_t = type { %struct.pmix_list_item_t, i8, i8, ptr, %struct.timeval, i32, %struct.pmix_list_t }
%struct.timeval = type { i64, i64 }

@pmix_output_info = external global [0 x %struct.pmix_output_desc_t], align 8
@prte_process_info = external global %struct.prte_process_info_t, align 8
@.str.18 = private unnamed_addr constant [38 x i8] c"%s iof: closing fd %d for write event\00", align 1

; Function Attrs: inlinehint nounwind uwtable
define internal void @pmix_obj_run_destructors(ptr noundef %0) #2 {
  %2 = alloca ptr, align 8
  %3 = alloca ptr, align 8
  store ptr %0, ptr %2, align 8, !tbaa !26
  call void @llvm.lifetime.start.p0(i64 8, ptr %3) #11
  %4 = load ptr, ptr %2, align 8, !tbaa !26
  %5 = getelementptr inbounds nuw %struct.pmix_object_t, ptr %4, i32 0, i32 1
  %6 = load ptr, ptr %5, align 8, !tbaa !35
  %7 = getelementptr inbounds nuw %struct.pmix_class_t, ptr %6, i32 0, i32 7
  %8 = load ptr, ptr %7, align 8, !tbaa !44
  store ptr %8, ptr %3, align 8, !tbaa !16
  br label %9

9:                                                ; preds = %13, %1
  %10 = load ptr, ptr %3, align 8, !tbaa !16
  %11 = load ptr, ptr %10, align 8, !tbaa !16
  %12 = icmp ne ptr null, %11
  br i1 %12, label %13, label %19

13:                                               ; preds = %9
  %14 = load ptr, ptr %3, align 8, !tbaa !16
  %15 = load ptr, ptr %14, align 8, !tbaa !16
  %16 = load ptr, ptr %2, align 8, !tbaa !26
  call void %15(ptr noundef %16)
  %17 = load ptr, ptr %3, align 8, !tbaa !16
  %18 = getelementptr inbounds nuw ptr, ptr %17, i32 1
  store ptr %18, ptr %3, align 8, !tbaa !16
  br label %9, !llvm.loop !45

19:                                               ; preds = %9
  call void @llvm.lifetime.end.p0(i64 8, ptr %3) #11
  ret void
}

; Function Attrs: nounwind uwtable
define internal void @prte_iof_base_write_event_destruct(ptr noundef %0) #0 {
  %2 = alloca ptr, align 8
  store ptr %0, ptr %2, align 8, !tbaa !16
  %3 = load ptr, ptr %2, align 8, !tbaa !16
  %4 = getelementptr inbounds nuw %struct.prte_iof_write_event_t, ptr %3, i32 0, i32 5
  %5 = load i32, ptr %4, align 8, !tbaa !66
  %6 = icmp sle i32 0, %5
  br i1 %6, label %7, label %11

7:                                                ; preds = %1
  %8 = load ptr, ptr %2, align 8, !tbaa !16
  %9 = getelementptr inbounds nuw %struct.prte_iof_write_event_t, ptr %8, i32 0, i32 3
  %10 = load ptr, ptr %9, align 8, !tbaa !83
  call void @event_free(ptr noundef %10)
  br label %15

11:                                               ; preds = %1
  %12 = load ptr, ptr %2, align 8, !tbaa !16
  %13 = getelementptr inbounds nuw %struct.prte_iof_write_event_t, ptr %12, i32 0, i32 3
  %14 = load ptr, ptr %13, align 8, !tbaa !83
  call void @free(ptr noundef %14) #11
  br label %15

15:                                               ; preds = %11, %7
  %16 = load ptr, ptr %2, align 8, !tbaa !16
  %17 = getelementptr inbounds nuw %struct.prte_iof_write_event_t, ptr %16, i32 0, i32 5
  %18 = load i32, ptr %17, align 8, !tbaa !66
  %19 = icmp slt i32 2, %18
  br i1 %19, label %20, label %44

20:                                               ; preds = %15
  %21 = load i32, ptr getelementptr inbounds nuw (%struct.pmix_mca_base_framework_t, ptr @prte_iof_base_framework, i32 0, i32 11), align 4, !tbaa !60
  %22 = icmp sge i32 %21, 0
  br i1 %22, label %23, label %39

23:                                               ; preds = %20
  %24 = load i32, ptr getelementptr inbounds nuw (%struct.pmix_mca_base_framework_t, ptr @prte_iof_base_framework, i32 0, i32 11), align 4, !tbaa !60
  %25 = icmp slt i32 %24, 64
  br i1 %25, label %26, label %39

26:                                               ; preds = %23
  %27 = load i32, ptr getelementptr inbounds nuw (%struct.pmix_mca_base_framework_t, ptr @prte_iof_base_framework, i32 0, i32 11), align 4, !tbaa !60
  %28 = sext i32 %27 to i64
  %29 = getelementptr inbounds [0 x %struct.pmix_output_desc_t], ptr @pmix_output_info, i64 0, i64 %28
  %30 = getelementptr inbounds nuw %struct.pmix_output_desc_t, ptr %29, i32 0, i32 2
  %31 = load i32, ptr %30, align 4, !tbaa !64
  %32 = icmp sge i32 %31, 20
  br i1 %32, label %33, label %39

33:                                               ; preds = %26
  %34 = load i32, ptr getelementptr inbounds nuw (%struct.pmix_mca_base_framework_t, ptr @prte_iof_base_framework, i32 0, i32 11), align 4, !tbaa !60
  %35 = call ptr @prte_util_print_name_args(ptr noundef @prte_process_info)
  %36 = load ptr, ptr %2, align 8, !tbaa !16
  %37 = getelementptr inbounds nuw %struct.prte_iof_write_event_t, ptr %36, i32 0, i32 5
  %38 = load i32, ptr %37, align 8, !tbaa !66
  call void (i32, ptr, ...) @pmix_output(i32 noundef %34, ptr noundef @.str.18, ptr noundef %35, i32 noundef %38)
  br label %39

39:                                               ; preds = %33, %26, %23, %20
  %40 = load ptr, ptr %2, align 8, !tbaa !16
  %41 = getelementptr inbounds nuw %struct.prte_iof_write_event_t, ptr %40, i32 0, i32 5
  %42 = load i32, ptr %41, align 8, !tbaa !66
  %43 = call i32 @close(i32 noundef %42)
  br label %44

44:                                               ; preds = %39, %15
  br label %45

45:                                               ; preds = %44
  %46 = load ptr, ptr %2, align 8, !tbaa !16
  %47 = getelementptr inbounds nuw %struct.prte_iof_write_event_t, ptr %46, i32 0, i32 6
  call void @pmix_obj_run_destructors(ptr noundef %47)
  br label %48

48:                                               ; preds = %45
  ret void
}