; Function Attrs: nounwind uwtable
define internal void @prte_iof_base_write_event_destruct(ptr noundef %0) #0 {
  %2 = getelementptr inbounds nuw i8, ptr %0, i64 176
  %3 = load i32, ptr %2, align 8, !tbaa !51
  %4 = icmp sgt i32 %3, -1
  %5 = getelementptr inbounds nuw i8, ptr %0, i64 152
  %6 = load ptr, ptr %5, align 8, !tbaa !66
  br i1 %4, label %7, label %8

7:                                                ; preds = %1
  tail call void @event_free(ptr noundef %6) #12
  br label %9

8:                                                ; preds = %1
  tail call void @free(ptr noundef %6) #12
  br label %9

9:                                                ; preds = %8, %7
  %10 = load i32, ptr %2, align 8, !tbaa !51
  %11 = icmp sgt i32 %10, 2
  br i1 %11, label %12, label %25

12:                                               ; preds = %9
  %13 = load i32, ptr getelementptr inbounds nuw (i8, ptr @prte_iof_base_framework, i64 76), align 4, !tbaa !45
  %or.cond = icmp ult i32 %13, 64
  br i1 %or.cond, label %14, label %22

14:                                               ; preds = %12
  %15 = zext nneg i32 %13 to i64
  %16 = getelementptr inbounds nuw [0 x %struct.pmix_output_desc_t], ptr @pmix_output_info, i64 0, i64 %15, i32 2
  %17 = load i32, ptr %16, align 4, !tbaa !49
  %18 = icmp sgt i32 %17, 19
  br i1 %18, label %19, label %22

19:                                               ; preds = %14
  %20 = tail call ptr @prte_util_print_name_args(ptr noundef nonnull @prte_process_info) #12
  %21 = load i32, ptr %2, align 8, !tbaa !51
  tail call void (i32, ptr, ...) @pmix_output(i32 noundef %13, ptr noundef nonnull @.str.18, ptr noundef %20, i32 noundef %21) #12
  %.pre = load i32, ptr %2, align 8, !tbaa !51
  br label %22

22:                                               ; preds = %19, %14, %12
  %23 = phi i32 [ %.pre, %19 ], [ %10, %14 ], [ %10, %12 ]
  %24 = tail call i32 @close(i32 noundef %23) #12
  br label %25

25:                                               ; preds = %9, %22
  %26 = getelementptr inbounds nuw i8, ptr %0, i64 184
  %27 = getelementptr inbounds nuw i8, ptr %0, i64 224
  %28 = load ptr, ptr %27, align 8, !tbaa !16
  %29 = getelementptr inbounds nuw i8, ptr %28, i64 48
  %30 = load ptr, ptr %29, align 8, !tbaa !29
  %31 = load ptr, ptr %30, align 8, !tbaa !21
  %.not6.i = icmp eq ptr %31, null
  br i1 %.not6.i, label %pmix_obj_run_destructors.exit, label %.lr.ph.i

.lr.ph.i:                                         ; preds = %25, %.lr.ph.i
  %32 = phi ptr [ %34, %.lr.ph.i ], [ %31, %25 ]
  %.07.i = phi ptr [ %33, %.lr.ph.i ], [ %30, %25 ]
  tail call void %32(ptr noundef nonnull %26) #12
  %33 = getelementptr inbounds nuw i8, ptr %.07.i, i64 8
  %34 = load ptr, ptr %33, align 8, !tbaa !21
  %.not.i = icmp eq ptr %34, null
  br i1 %.not.i, label %pmix_obj_run_destructors.exit, label %.lr.ph.i, !llvm.loop !30

pmix_obj_run_destructors.exit:                    ; preds = %.lr.ph.i, %25
  ret void
}